target datalayout = "e-m:e-p270:32:32-p271:32:32-p272:64:64-i64:64-i128:128-f80:128-n8:16:32:64-S128"
target triple = "x86_64-pc-linux-gnu"

%struct.timeval = type { i64, i64 }
%struct.evutil_weakrand_state = type { i32 }

; Function Attrs: nounwind uwtable
define i32 @evutil_weakrand_seed_(ptr noundef %0, i32 noundef %1) #0 {
  %3 = alloca ptr, align 8
  %4 = alloca i32, align 4
  %5 = alloca %struct.timeval, align 8
  store ptr %0, ptr %3, align 8
  store i32 %1, ptr %4, align 4
  %6 = load i32, ptr %4, align 4
  %7 = icmp eq i32 %6, 0
  br i1 %7, label %8, label %20

8:                                                ; preds = %2
  call void @llvm.lifetime.start.p0(i64 16, ptr %5) #11
  %9 = call i32 @gettimeofday(ptr noundef %5, ptr noundef null) #11
  %10 = getelementptr inbounds nuw %struct.timeval, ptr %5, i32 0, i32 0
  %11 = load i64, ptr %10, align 8
  %12 = trunc i64 %11 to i32
  %13 = getelementptr inbounds nuw %struct.timeval, ptr %5, i32 0, i32 1
  %14 = load i64, ptr %13, align 8
  %15 = trunc i64 %14 to i32
  %16 = add i32 %12, %15
  store i32 %16, ptr %4, align 4
  %17 = call i32 @getpid() #11
  %18 = load i32, ptr %4, align 4
  %19 = add i32 %18, %17
  store i32 %19, ptr %4, align 4
  call void @llvm.lifetime.end.p0(i64 16, ptr %5) #11
  br label %20

20:                                               ; preds = %8, %2
  %21 = load i32, ptr %4, align 4
  %22 = load ptr, ptr %3, align 8
  %23 = getelementptr inbounds nuw %struct.evutil_weakrand_state, ptr %22, i32 0, i32 0
  store i32 %21, ptr %23, align 4
  %24 = load i32, ptr %4, align 4
  ret i32 %24
}