; Function Attrs: nounwind uwtable
define i32 @evutil_weakrand_seed_(ptr noundef writeonly captures(none) initializes((0, 4)) %0, i32 noundef %1) local_unnamed_addr #0 {
  %3 = alloca %struct.timeval, align 8
  %4 = icmp eq i32 %1, 0
  br i1 %4, label %5, label %15

5:                                                ; preds = %2
  call void @llvm.lifetime.start.p0(i64 16, ptr nonnull %3) #30
  %6 = call i32 @gettimeofday(ptr noundef nonnull %3, ptr noundef null) #30
  %7 = load i64, ptr %3, align 8
  %8 = trunc i64 %7 to i32
  %9 = getelementptr inbounds nuw i8, ptr %3, i64 8
  %10 = load i64, ptr %9, align 8
  %11 = trunc i64 %10 to i32
  %12 = add i32 %11, %8
  %13 = tail call i32 @getpid() #30
  %14 = add i32 %12, %13
  call void @llvm.lifetime.end.p0(i64 16, ptr nonnull %3) #30
  br label %15

15:                                               ; preds = %5, %2
  %.0 = phi i32 [ %14, %5 ], [ %1, %2 ]
  store i32 %.0, ptr %0, align 4
  ret i32 %.0
}